; Function Attrs: mustprogress nofree norecurse nosync nounwind willreturn memory(read, inaccessiblemem: none) uwtable
define hidden range(i64 0, 2305843009213693952) i64 @mbedtls_mpi_size(ptr noundef readonly captures(none) %0) local_unnamed_addr #8 {
  %2 = getelementptr inbounds nuw i8, ptr %0, i64 8
  %3 = load i64, ptr %2, align 8, !tbaa !12
  %4 = icmp eq i64 %3, 0
  br i1 %4, label %mbedtls_mpi_bitlen.exit, label %.preheader.i

.preheader.i:                                     ; preds = %1
  %5 = getelementptr inbounds nuw i8, ptr %0, i64 16
  %.pre.pre.i = load ptr, ptr %5, align 8, !tbaa !11
  br label %6

6:                                                ; preds = %7, %.preheader.i
  %.010.in.i = phi i64 [ %.010.i, %7 ], [ %3, %.preheader.i ]
  %.010.i = add i64 %.010.in.i, -1
  %.not.i = icmp eq i64 %.010.i, 0
  br i1 %.not.i, label %._crit_edge.i, label %7

._crit_edge.i:                                    ; preds = %6
  %.pre14.i = load i64, ptr %.pre.pre.i, align 8, !tbaa !13
  br label %12

7:                                                ; preds = %6
  %8 = getelementptr inbounds nuw i64, ptr %.pre.pre.i, i64 %.010.i
  %9 = load i64, ptr %8, align 8, !tbaa !13
  %.not12.i = icmp eq i64 %9, 0
  br i1 %.not12.i, label %6, label %split.i, !llvm.loop !19

split.i:                                          ; preds = %7
  %10 = shl i64 %.010.i, 6
  %11 = add i64 %10, 71
  br label %12

12:                                               ; preds = %split.i, %._crit_edge.i
  %13 = phi i64 [ %.pre14.i, %._crit_edge.i ], [ %9, %split.i ]
  %.010.lcssa.i = phi i64 [ 71, %._crit_edge.i ], [ %11, %split.i ]
  %.not7.i.i = icmp sgt i64 %13, -1
  br i1 %.not7.i.i, label %.lr.ph.i.i, label %_ZL11mbedtls_clzm.exit.i

.lr.ph.i.i:                                       ; preds = %12, %.lr.ph.i.i
  %.09.i.i = phi i64 [ %14, %.lr.ph.i.i ], [ -9223372036854775808, %12 ]
  %.068.i.i = phi i64 [ %15, %.lr.ph.i.i ], [ 0, %12 ]
  %14 = lshr i64 %.09.i.i, 1
  %15 = add nuw nsw i64 %.068.i.i, 1
  %16 = icmp samesign ult i64 %.068.i.i, 63
  %17 = and i64 %14, %13
  %.not.i.i = icmp eq i64 %17, 0
  %or.cond.i.i = select i1 %16, i1 %.not.i.i, i1 false
  br i1 %or.cond.i.i, label %.lr.ph.i.i, label %_ZL11mbedtls_clzm.exit.loopexit.i, !llvm.loop !20

_ZL11mbedtls_clzm.exit.loopexit.i:                ; preds = %.lr.ph.i.i
  %.neg.i = xor i64 %.068.i.i, -1
  br label %_ZL11mbedtls_clzm.exit.i

_ZL11mbedtls_clzm.exit.i:                         ; preds = %_ZL11mbedtls_clzm.exit.loopexit.i, %12
  %.06.lcssa.i.neg13.i = phi i64 [ 0, %12 ], [ %.neg.i, %_ZL11mbedtls_clzm.exit.loopexit.i ]
  %18 = add i64 %.010.lcssa.i, %.06.lcssa.i.neg13.i
  %19 = lshr i64 %18, 3
  br label %mbedtls_mpi_bitlen.exit

mbedtls_mpi_bitlen.exit:                          ; preds = %1, %_ZL11mbedtls_clzm.exit.i
  %.0.i = phi i64 [ %19, %_ZL11mbedtls_clzm.exit.i ], [ 0, %1 ]
  ret i64 %.0.i
}